target datalayout = "e-m:e-p270:32:32-p271:32:32-p272:64:64-i64:64-i128:128-f80:128-n8:16:32:64-S128"
target triple = "x86_64-pc-linux-gnu"

@H5_libinit_g = external global i8, align 1
@H5_libterm_g = external global i8, align 1
@H5T_NATIVE_UCHAR_g = external global i64, align 8
@.str = private unnamed_addr constant [6 x i8] c"CLASS\00", align 1
@.str.1 = private unnamed_addr constant [6 x i8] c"IMAGE\00", align 1
@.str.2 = private unnamed_addr constant [14 x i8] c"IMAGE_VERSION\00", align 1
@.str.3 = private unnamed_addr constant [4 x i8] c"1.2\00", align 1
@.str.4 = private unnamed_addr constant [15 x i8] c"IMAGE_SUBCLASS\00", align 1
@.str.5 = private unnamed_addr constant [14 x i8] c"IMAGE_INDEXED\00", align 1

; Function Attrs: nounwind uwtable
define i32 @H5IMmake_image_8bit(i64 noundef %0, ptr noundef %1, i64 noundef %2, i64 noundef %3, ptr noundef %4) #0 {
  %6 = alloca i32, align 4
  %7 = alloca i64, align 8
  %8 = alloca ptr, align 8
  %9 = alloca i64, align 8
  %10 = alloca i64, align 8
  %11 = alloca ptr, align 8
  %12 = alloca [2 x i64], align 16
  %13 = alloca i32, align 4
  store i64 %0, ptr %7, align 8, !tbaa !3
  store ptr %1, ptr %8, align 8, !tbaa !7
  store i64 %2, ptr %9, align 8, !tbaa !3
  store i64 %3, ptr %10, align 8, !tbaa !3
  store ptr %4, ptr %11, align 8, !tbaa !7
  call void @llvm.lifetime.start.p0(i64 16, ptr %12) #7
  %14 = load ptr, ptr %8, align 8, !tbaa !7
  %15 = icmp eq ptr %14, null
  br i1 %15, label %16, label %17

16:                                               ; preds = %5
  store i32 -1, ptr %6, align 4
  store i32 1, ptr %13, align 4
  br label %67

17:                                               ; preds = %5
  %18 = load i64, ptr %10, align 8, !tbaa !3
  %19 = getelementptr inbounds [2 x i64], ptr %12, i64 0, i64 0
  store i64 %18, ptr %19, align 16, !tbaa !3
  %20 = load i64, ptr %9, align 8, !tbaa !3
  %21 = getelementptr inbounds [2 x i64], ptr %12, i64 0, i64 1
  store i64 %20, ptr %21, align 8, !tbaa !3
  %22 = load i64, ptr %7, align 8, !tbaa !3
  %23 = load ptr, ptr %8, align 8, !tbaa !7
  %24 = getelementptr inbounds [2 x i64], ptr %12, i64 0, i64 0
  %25 = load i8, ptr @H5_libinit_g, align 1, !tbaa !10, !range !12, !noundef !13
  %26 = trunc i8 %25 to i1
  br i1 %26, label %31, label %27

27:                                               ; preds = %17
  %28 = load i8, ptr @H5_libterm_g, align 1, !tbaa !10, !range !12, !noundef !13
  %29 = trunc i8 %28 to i1
  %30 = xor i1 %29, true
  br label %31

31:                                               ; preds = %27, %17
  %32 = phi i1 [ false, %17 ], [ %30, %27 ]
  %33 = xor i1 %32, true
  %34 = xor i1 %33, true
  %35 = zext i1 %34 to i32
  %36 = sext i32 %35 to i64
  %37 = call i64 @llvm.expect.i64(i64 %36, i64 0)
  %38 = icmp ne i64 %37, 0
  br i1 %38, label %39, label %41

39:                                               ; preds = %31
  %40 = call i32 @H5open()
  br label %42

41:                                               ; preds = %31
  br label %42

42:                                               ; preds = %41, %39
  %43 = load i64, ptr @H5T_NATIVE_UCHAR_g, align 8, !tbaa !3
  %44 = load ptr, ptr %11, align 8, !tbaa !7
  %45 = call i32 @H5LTmake_dataset(i64 noundef %22, ptr noundef %23, i32 noundef 2, ptr noundef %24, i64 noundef %43, ptr noundef %44)
  %46 = icmp slt i32 %45, 0
  br i1 %46, label %47, label %48

47:                                               ; preds = %42
  store i32 -1, ptr %6, align 4
  store i32 1, ptr %13, align 4
  br label %67

48:                                               ; preds = %42
  %49 = load i64, ptr %7, align 8, !tbaa !3
  %50 = load ptr, ptr %8, align 8, !tbaa !7
  %51 = call i32 @H5LTset_attribute_string(i64 noundef %49, ptr noundef %50, ptr noundef @.str, ptr noundef @.str.1)
  %52 = icmp slt i32 %51, 0
  br i1 %52, label %53, label %54

53:                                               ; preds = %48
  store i32 -1, ptr %6, align 4
  store i32 1, ptr %13, align 4
  br label %67

54:                                               ; preds = %48
  %55 = load i64, ptr %7, align 8, !tbaa !3
  %56 = load ptr, ptr %8, align 8, !tbaa !7
  %57 = call i32 @H5LTset_attribute_string(i64 noundef %55, ptr noundef %56, ptr noundef @.str.2, ptr noundef @.str.3)
  %58 = icmp slt i32 %57, 0
  br i1 %58, label %59, label %60

59:                                               ; preds = %54
  store i32 -1, ptr %6, align 4
  store i32 1, ptr %13, align 4
  br label %67

60:                                               ; preds = %54
  %61 = load i64, ptr %7, align 8, !tbaa !3
  %62 = load ptr, ptr %8, align 8, !tbaa !7
  %63 = call i32 @H5LTset_attribute_string(i64 noundef %61, ptr noundef %62, ptr noundef @.str.4, ptr noundef @.str.5)
  %64 = icmp slt i32 %63, 0
  br i1 %64, label %65, label %66

65:                                               ; preds = %60
  store i32 -1, ptr %6, align 4
  store i32 1, ptr %13, align 4
  br label %67

66:                                               ; preds = %60
  store i32 0, ptr %6, align 4
  store i32 1, ptr %13, align 4
  br label %67

67:                                               ; preds = %66, %65, %59, %53, %47, %16
  call void @llvm.lifetime.end.p0(i64 16, ptr %12) #7
  %68 = load i32, ptr %6, align 4
  ret i32 %68
}