; Function Attrs: nounwind uwtable
define range(i32 -1, 1) i32 @H5IMmake_image_8bit(i64 noundef %0, ptr noundef %1, i64 noundef %2, i64 noundef %3, ptr noundef %4) local_unnamed_addr #0 {
  %6 = alloca [2 x i64], align 16
  call void @llvm.lifetime.start.p0(i64 16, ptr nonnull %6) #8
  %7 = icmp eq ptr %1, null
  br i1 %7, label %29, label %8

8:                                                ; preds = %5
  store i64 %3, ptr %6, align 16, !tbaa !3
  %9 = getelementptr inbounds nuw i8, ptr %6, i64 8
  store i64 %2, ptr %9, align 8, !tbaa !3
  %10 = load i8, ptr @H5_libinit_g, align 1, !tbaa !7, !range !9, !noundef !10
  %11 = trunc nuw i8 %10 to i1
  %12 = load i8, ptr @H5_libterm_g, align 1, !range !9
  %13 = trunc nuw i8 %12 to i1
  %14 = select i1 %11, i1 true, i1 %13
  br i1 %14, label %17, label %15, !prof !11

15:                                               ; preds = %8
  %16 = tail call i32 @H5open() #8
  br label %17

17:                                               ; preds = %8, %15
  %18 = load i64, ptr @H5T_NATIVE_UCHAR_g, align 8, !tbaa !3
  %19 = call i32 @H5LTmake_dataset(i64 noundef %0, ptr noundef nonnull %1, i32 noundef 2, ptr noundef nonnull %6, i64 noundef %18, ptr noundef %4) #8
  %20 = icmp slt i32 %19, 0
  br i1 %20, label %29, label %21

21:                                               ; preds = %17
  %22 = call i32 @H5LTset_attribute_string(i64 noundef %0, ptr noundef nonnull %1, ptr noundef nonnull @.str, ptr noundef nonnull @.str.1) #8
  %23 = icmp slt i32 %22, 0
  br i1 %23, label %29, label %24

24:                                               ; preds = %21
  %25 = call i32 @H5LTset_attribute_string(i64 noundef %0, ptr noundef nonnull %1, ptr noundef nonnull @.str.2, ptr noundef nonnull @.str.3) #8
  %26 = icmp slt i32 %25, 0
  br i1 %26, label %29, label %27

27:                                               ; preds = %24
  %28 = call i32 @H5LTset_attribute_string(i64 noundef %0, ptr noundef nonnull %1, ptr noundef nonnull @.str.4, ptr noundef nonnull @.str.5) #8
  %.lobit = ashr i32 %28, 31
  br label %29

29:                                               ; preds = %27, %24, %21, %17, %5
  %.0 = phi i32 [ -1, %5 ], [ -1, %17 ], [ -1, %21 ], [ -1, %24 ], [ %.lobit, %27 ]
  call void @llvm.lifetime.end.p0(i64 16, ptr nonnull %6) #8
  ret i32 %.0
}